target datalayout = "e-m:e-p270:32:32-p271:32:32-p272:64:64-i64:64-i128:128-f80:128-n8:16:32:64-S128"
target triple = "x86_64-pc-linux-gnu"

%struct.XML_Memory_Handling_Suite = type { ptr, ptr, ptr }
%struct.XML_ParserStruct = type { ptr, ptr, ptr, %struct.XML_Memory_Handling_Suite, ptr, ptr, ptr, i64, ptr, i64, i8, i32, ptr, ptr, ptr, ptr, ptr, ptr, ptr, ptr, ptr, ptr, ptr, ptr, ptr, ptr, ptr, ptr, ptr, ptr, ptr, ptr, ptr, ptr, ptr, ptr, ptr, ptr, %struct.INIT_ENCODING, ptr, ptr, i8, i8, ptr, ptr, ptr, ptr, %struct.prolog_state, ptr, i32, ptr, ptr, ptr, ptr, ptr, i8, i32, ptr, ptr, ptr, ptr, ptr, ptr, ptr, ptr, ptr, i8, i8, ptr, ptr, ptr, ptr, ptr, ptr, i32, i32, i32, ptr, ptr, i64, i8, %struct.position, %struct.STRING_POOL, %struct.STRING_POOL, ptr, i32, i8, ptr, %struct.XML_ParsingStatus, i64 }
%struct.INIT_ENCODING = type { %struct.encoding, ptr }
%struct.encoding = type { [3 x ptr], [2 x ptr], ptr, ptr, ptr, ptr, ptr, ptr, ptr, ptr, ptr, ptr, i32, i8, i8 }
%struct.prolog_state = type { ptr, i32, i32 }
%struct.position = type { i64, i64 }
%struct.STRING_POOL = type { ptr, ptr, ptr, ptr, ptr, ptr }
%struct.XML_ParsingStatus = type { i32, i8 }
%struct.DTD = type { %struct.HASH_TABLE, %struct.HASH_TABLE, %struct.HASH_TABLE, %struct.HASH_TABLE, %struct.STRING_POOL, %struct.STRING_POOL, i8, i8, i8, %struct.prefix, i8, ptr, i32, i32, i32, i32, ptr }
%struct.HASH_TABLE = type { ptr, i8, i64, i64, ptr }
%struct.prefix = type { ptr, ptr }
%struct.ELEMENT_TYPE = type { ptr, ptr, ptr, i32, i32, ptr }

; Function Attrs: nounwind uwtable
define internal ptr @poolAppend(ptr noundef %0, ptr noundef %1, ptr noundef %2, ptr noundef %3) #0 {
  %5 = alloca ptr, align 8
  %6 = alloca ptr, align 8
  %7 = alloca ptr, align 8
  %8 = alloca ptr, align 8
  %9 = alloca ptr, align 8
  %10 = alloca i32, align 4
  %11 = alloca i32, align 4
  store ptr %0, ptr %6, align 8, !tbaa !9
  store ptr %1, ptr %7, align 8, !tbaa !216
  store ptr %2, ptr %8, align 8, !tbaa !4
  store ptr %3, ptr %9, align 8, !tbaa !4
  %12 = load ptr, ptr %6, align 8, !tbaa !9
  %13 = getelementptr inbounds nuw %struct.STRING_POOL, ptr %12, i32 0, i32 3
  %14 = load ptr, ptr %13, align 8, !tbaa !87
  %15 = icmp ne ptr %14, null
  br i1 %15, label %21, label %16

16:                                               ; preds = %4
  %17 = load ptr, ptr %6, align 8, !tbaa !9
  %18 = call zeroext i8 @poolGrow(ptr noundef %17)
  %19 = icmp ne i8 %18, 0
  br i1 %19, label %21, label %20

20:                                               ; preds = %16
  store ptr null, ptr %5, align 8
  br label %53

21:                                               ; preds = %16, %4
  br label %22

22:                                               ; preds = %48, %21
  call void @llvm.lifetime.start.p0(i64 4, ptr %10) #10
  %23 = load ptr, ptr %7, align 8, !tbaa !216
  %24 = getelementptr inbounds nuw %struct.encoding, ptr %23, i32 0, i32 10
  %25 = load ptr, ptr %24, align 8, !tbaa !218
  %26 = load ptr, ptr %7, align 8, !tbaa !216
  %27 = load ptr, ptr %9, align 8, !tbaa !4
  %28 = load ptr, ptr %6, align 8, !tbaa !9
  %29 = getelementptr inbounds nuw %struct.STRING_POOL, ptr %28, i32 0, i32 3
  %30 = load ptr, ptr %6, align 8, !tbaa !9
  %31 = getelementptr inbounds nuw %struct.STRING_POOL, ptr %30, i32 0, i32 2
  %32 = load ptr, ptr %31, align 8, !tbaa !88
  %33 = call i32 %25(ptr noundef %26, ptr noundef %8, ptr noundef %27, ptr noundef %29, ptr noundef %32)
  store i32 %33, ptr %10, align 4, !tbaa !177
  %34 = load i32, ptr %10, align 4, !tbaa !177
  %35 = icmp eq i32 %34, 0
  br i1 %35, label %39, label %36

36:                                               ; preds = %22
  %37 = load i32, ptr %10, align 4, !tbaa !177
  %38 = icmp eq i32 %37, 1
  br i1 %38, label %39, label %40

39:                                               ; preds = %36, %22
  store i32 2, ptr %11, align 4
  br label %46

40:                                               ; preds = %36
  %41 = load ptr, ptr %6, align 8, !tbaa !9
  %42 = call zeroext i8 @poolGrow(ptr noundef %41)
  %43 = icmp ne i8 %42, 0
  br i1 %43, label %45, label %44

44:                                               ; preds = %40
  store ptr null, ptr %5, align 8
  store i32 1, ptr %11, align 4
  br label %46

45:                                               ; preds = %40
  store i32 0, ptr %11, align 4
  br label %46

46:                                               ; preds = %45, %44, %39
  call void @llvm.lifetime.end.p0(i64 4, ptr %10) #10
  %47 = load i32, ptr %11, align 4
  switch i32 %47, label %55 [
    i32 0, label %48
    i32 2, label %49
    i32 1, label %53
  ]

48:                                               ; preds = %46
  br label %22

49:                                               ; preds = %46
  %50 = load ptr, ptr %6, align 8, !tbaa !9
  %51 = getelementptr inbounds nuw %struct.STRING_POOL, ptr %50, i32 0, i32 4
  %52 = load ptr, ptr %51, align 8, !tbaa !86
  store ptr %52, ptr %5, align 8
  br label %53

53:                                               ; preds = %49, %46, %20
  %54 = load ptr, ptr %5, align 8
  ret ptr %54

55:                                               ; preds = %46
  unreachable
}

; Function Attrs: nounwind uwtable
define internal ptr @poolStoreString(ptr noundef %0, ptr noundef %1, ptr noundef %2, ptr noundef %3) #0 {
  %5 = alloca ptr, align 8
  %6 = alloca ptr, align 8
  %7 = alloca ptr, align 8
  %8 = alloca ptr, align 8
  %9 = alloca ptr, align 8
  store ptr %0, ptr %6, align 8, !tbaa !9
  store ptr %1, ptr %7, align 8, !tbaa !216
  store ptr %2, ptr %8, align 8, !tbaa !4
  store ptr %3, ptr %9, align 8, !tbaa !4
  %10 = load ptr, ptr %6, align 8, !tbaa !9
  %11 = load ptr, ptr %7, align 8, !tbaa !216
  %12 = load ptr, ptr %8, align 8, !tbaa !4
  %13 = load ptr, ptr %9, align 8, !tbaa !4
  %14 = call ptr @poolAppend(ptr noundef %10, ptr noundef %11, ptr noundef %12, ptr noundef %13)
  %15 = icmp ne ptr %14, null
  br i1 %15, label %17, label %16

16:                                               ; preds = %4
  store ptr null, ptr %5, align 8
  br label %38

17:                                               ; preds = %4
  %18 = load ptr, ptr %6, align 8, !tbaa !9
  %19 = getelementptr inbounds nuw %struct.STRING_POOL, ptr %18, i32 0, i32 3
  %20 = load ptr, ptr %19, align 8, !tbaa !87
  %21 = load ptr, ptr %6, align 8, !tbaa !9
  %22 = getelementptr inbounds nuw %struct.STRING_POOL, ptr %21, i32 0, i32 2
  %23 = load ptr, ptr %22, align 8, !tbaa !88
  %24 = icmp eq ptr %20, %23
  br i1 %24, label %25, label %30

25:                                               ; preds = %17
  %26 = load ptr, ptr %6, align 8, !tbaa !9
  %27 = call zeroext i8 @poolGrow(ptr noundef %26)
  %28 = icmp ne i8 %27, 0
  br i1 %28, label %30, label %29

29:                                               ; preds = %25
  store ptr null, ptr %5, align 8
  br label %38

30:                                               ; preds = %25, %17
  %31 = load ptr, ptr %6, align 8, !tbaa !9
  %32 = getelementptr inbounds nuw %struct.STRING_POOL, ptr %31, i32 0, i32 3
  %33 = load ptr, ptr %32, align 8, !tbaa !87
  %34 = getelementptr inbounds nuw i8, ptr %33, i32 1
  store ptr %34, ptr %32, align 8, !tbaa !87
  store i8 0, ptr %33, align 1, !tbaa !10
  %35 = load ptr, ptr %6, align 8, !tbaa !9
  %36 = getelementptr inbounds nuw %struct.STRING_POOL, ptr %35, i32 0, i32 4
  %37 = load ptr, ptr %36, align 8, !tbaa !86
  store ptr %37, ptr %5, align 8
  br label %38

38:                                               ; preds = %30, %29, %16
  %39 = load ptr, ptr %5, align 8
  ret ptr %39
}

; Function Attrs: nounwind uwtable
define internal ptr @getElementType(ptr noundef %0, ptr noundef %1, ptr noundef %2, ptr noundef %3) #0 {
  %5 = alloca ptr, align 8
  %6 = alloca ptr, align 8
  %7 = alloca ptr, align 8
  %8 = alloca ptr, align 8
  %9 = alloca ptr, align 8
  %10 = alloca ptr, align 8
  %11 = alloca ptr, align 8
  %12 = alloca ptr, align 8
  %13 = alloca i32, align 4
  store ptr %0, ptr %6, align 8, !tbaa !13
  store ptr %1, ptr %7, align 8, !tbaa !216
  store ptr %2, ptr %8, align 8, !tbaa !4
  store ptr %3, ptr %9, align 8, !tbaa !4
  call void @llvm.lifetime.start.p0(i64 8, ptr %10) #10
  %14 = load ptr, ptr %6, align 8, !tbaa !13
  %15 = getelementptr inbounds nuw %struct.XML_ParserStruct, ptr %14, i32 0, i32 68
  %16 = load ptr, ptr %15, align 8, !tbaa !41
  store ptr %16, ptr %10, align 8, !tbaa !9
  call void @llvm.lifetime.start.p0(i64 8, ptr %11) #10
  %17 = load ptr, ptr %10, align 8, !tbaa !9
  %18 = getelementptr inbounds nuw %struct.DTD, ptr %17, i32 0, i32 4
  %19 = load ptr, ptr %7, align 8, !tbaa !216
  %20 = load ptr, ptr %8, align 8, !tbaa !4
  %21 = load ptr, ptr %9, align 8, !tbaa !4
  %22 = call ptr @poolStoreString(ptr noundef %18, ptr noundef %19, ptr noundef %20, ptr noundef %21)
  store ptr %22, ptr %11, align 8, !tbaa !4
  call void @llvm.lifetime.start.p0(i64 8, ptr %12) #10
  %23 = load ptr, ptr %11, align 8, !tbaa !4
  %24 = icmp ne ptr %23, null
  br i1 %24, label %26, label %25

25:                                               ; preds = %4
  store ptr null, ptr %5, align 8
  store i32 1, ptr %13, align 4
  br label %65

26:                                               ; preds = %4
  %27 = load ptr, ptr %6, align 8, !tbaa !13
  %28 = load ptr, ptr %10, align 8, !tbaa !9
  %29 = getelementptr inbounds nuw %struct.DTD, ptr %28, i32 0, i32 1
  %30 = load ptr, ptr %11, align 8, !tbaa !4
  %31 = call ptr @lookup(ptr noundef %27, ptr noundef %29, ptr noundef %30, i64 noundef 40)
  store ptr %31, ptr %12, align 8, !tbaa !9
  %32 = load ptr, ptr %12, align 8, !tbaa !9
  %33 = icmp ne ptr %32, null
  br i1 %33, label %35, label %34

34:                                               ; preds = %26
  store ptr null, ptr %5, align 8
  store i32 1, ptr %13, align 4
  br label %65

35:                                               ; preds = %26
  %36 = load ptr, ptr %12, align 8, !tbaa !9
  %37 = getelementptr inbounds nuw %struct.ELEMENT_TYPE, ptr %36, i32 0, i32 0
  %38 = load ptr, ptr %37, align 8, !tbaa !173
  %39 = load ptr, ptr %11, align 8, !tbaa !4
  %40 = icmp ne ptr %38, %39
  br i1 %40, label %41, label %49

41:                                               ; preds = %35
  %42 = load ptr, ptr %10, align 8, !tbaa !9
  %43 = getelementptr inbounds nuw %struct.DTD, ptr %42, i32 0, i32 4
  %44 = getelementptr inbounds nuw %struct.STRING_POOL, ptr %43, i32 0, i32 4
  %45 = load ptr, ptr %44, align 8, !tbaa !238
  %46 = load ptr, ptr %10, align 8, !tbaa !9
  %47 = getelementptr inbounds nuw %struct.DTD, ptr %46, i32 0, i32 4
  %48 = getelementptr inbounds nuw %struct.STRING_POOL, ptr %47, i32 0, i32 3
  store ptr %45, ptr %48, align 8, !tbaa !166
  br label %63

49:                                               ; preds = %35
  %50 = load ptr, ptr %10, align 8, !tbaa !9
  %51 = getelementptr inbounds nuw %struct.DTD, ptr %50, i32 0, i32 4
  %52 = getelementptr inbounds nuw %struct.STRING_POOL, ptr %51, i32 0, i32 3
  %53 = load ptr, ptr %52, align 8, !tbaa !166
  %54 = load ptr, ptr %10, align 8, !tbaa !9
  %55 = getelementptr inbounds nuw %struct.DTD, ptr %54, i32 0, i32 4
  %56 = getelementptr inbounds nuw %struct.STRING_POOL, ptr %55, i32 0, i32 4
  store ptr %53, ptr %56, align 8, !tbaa !238
  %57 = load ptr, ptr %6, align 8, !tbaa !13
  %58 = load ptr, ptr %12, align 8, !tbaa !9
  %59 = call i32 @setElementTypePrefix(ptr noundef %57, ptr noundef %58)
  %60 = icmp ne i32 %59, 0
  br i1 %60, label %62, label %61

61:                                               ; preds = %49
  store ptr null, ptr %5, align 8
  store i32 1, ptr %13, align 4
  br label %65

62:                                               ; preds = %49
  br label %63

63:                                               ; preds = %62, %41
  %64 = load ptr, ptr %12, align 8, !tbaa !9
  store ptr %64, ptr %5, align 8
  store i32 1, ptr %13, align 4
  br label %65

65:                                               ; preds = %63, %61, %34, %25
  call void @llvm.lifetime.end.p0(i64 8, ptr %12) #10
  call void @llvm.lifetime.end.p0(i64 8, ptr %11) #10
  call void @llvm.lifetime.end.p0(i64 8, ptr %10) #10
  %66 = load ptr, ptr %5, align 8
  ret ptr %66
}