; Function Attrs: nounwind uwtable
define internal fastcc ptr @getElementType(ptr noundef readonly captures(none) %0, ptr noundef %1, ptr noundef %2, ptr noundef %3) unnamed_addr #0 {
  %5 = alloca ptr, align 8
  %6 = getelementptr inbounds nuw i8, ptr %0, i64 664
  %7 = load ptr, ptr %6, align 8, !tbaa !38
  %8 = getelementptr inbounds nuw i8, ptr %7, i64 160
  call void @llvm.lifetime.start.p0(i64 8, ptr nonnull %5)
  store ptr %2, ptr %5, align 8, !tbaa !185
  %9 = getelementptr inbounds nuw i8, ptr %7, i64 184
  %10 = load ptr, ptr %9, align 8, !tbaa !133
  %.not.i.i = icmp eq ptr %10, null
  br i1 %.not.i.i, label %11, label %13

11:                                               ; preds = %4
  %12 = tail call fastcc zeroext i8 @poolGrow(ptr noundef nonnull %8)
  %.not14.i.i = icmp eq i8 %12, 0
  br i1 %.not14.i.i, label %poolAppend.exit.thread.i, label %13

13:                                               ; preds = %11, %4
  %14 = getelementptr inbounds nuw i8, ptr %1, i64 104
  %15 = getelementptr inbounds nuw i8, ptr %7, i64 176
  br label %16

16:                                               ; preds = %20, %13
  %17 = load ptr, ptr %14, align 8, !tbaa !213
  %18 = load ptr, ptr %15, align 8, !tbaa !134
  %19 = call i32 %17(ptr noundef %1, ptr noundef nonnull %5, ptr noundef %3, ptr noundef nonnull %9, ptr noundef %18) #23
  %or.cond.i.i = icmp ult i32 %19, 2
  br i1 %or.cond.i.i, label %poolAppend.exit.i, label %20

20:                                               ; preds = %16
  %21 = call fastcc zeroext i8 @poolGrow(ptr noundef nonnull %8)
  %.not15.i.i = icmp eq i8 %21, 0
  br i1 %.not15.i.i, label %poolAppend.exit.thread.i, label %16

poolAppend.exit.thread.i:                         ; preds = %20, %11
  call void @llvm.lifetime.end.p0(i64 8, ptr nonnull %5)
  br label %poolStoreString.exit.thread

poolAppend.exit.i:                                ; preds = %16
  %22 = getelementptr inbounds nuw i8, ptr %7, i64 192
  %23 = load ptr, ptr %22, align 8, !tbaa !135
  call void @llvm.lifetime.end.p0(i64 8, ptr nonnull %5)
  %.not.i = icmp eq ptr %23, null
  br i1 %.not.i, label %poolStoreString.exit.thread, label %24

24:                                               ; preds = %poolAppend.exit.i
  %25 = load ptr, ptr %9, align 8, !tbaa !133
  %26 = load ptr, ptr %15, align 8, !tbaa !134
  %27 = icmp eq ptr %25, %26
  br i1 %27, label %28, label %poolStoreString.exit

28:                                               ; preds = %24
  %29 = call fastcc zeroext i8 @poolGrow(ptr noundef nonnull %8)
  %.not10.i = icmp eq i8 %29, 0
  br i1 %.not10.i, label %poolStoreString.exit.thread, label %._crit_edge.i

._crit_edge.i:                                    ; preds = %28
  %.pre.i = load ptr, ptr %9, align 8, !tbaa !133
  br label %poolStoreString.exit

poolStoreString.exit:                             ; preds = %24, %._crit_edge.i
  %30 = phi ptr [ %.pre.i, %._crit_edge.i ], [ %25, %24 ]
  %31 = getelementptr inbounds nuw i8, ptr %30, i64 1
  store ptr %31, ptr %9, align 8, !tbaa !133
  store i8 0, ptr %30, align 1, !tbaa !4
  %32 = load ptr, ptr %22, align 8, !tbaa !135
  %.not = icmp eq ptr %32, null
  br i1 %.not, label %poolStoreString.exit.thread, label %33

33:                                               ; preds = %poolStoreString.exit
  %34 = getelementptr inbounds nuw i8, ptr %7, i64 40
  %35 = call fastcc ptr @lookup(ptr noundef %0, ptr noundef nonnull %34, ptr noundef nonnull %32, i64 noundef 40)
  %.not22 = icmp eq ptr %35, null
  br i1 %.not22, label %poolStoreString.exit.thread, label %36

36:                                               ; preds = %33
  %37 = load ptr, ptr %35, align 8, !tbaa !149
  %.not23 = icmp eq ptr %37, %32
  br i1 %.not23, label %40, label %38

38:                                               ; preds = %36
  %39 = load ptr, ptr %22, align 8, !tbaa !227
  store ptr %39, ptr %9, align 8, !tbaa !138
  br label %43

40:                                               ; preds = %36
  %41 = load ptr, ptr %9, align 8, !tbaa !138
  store ptr %41, ptr %22, align 8, !tbaa !227
  %42 = call fastcc i32 @setElementTypePrefix(ptr noundef %0, ptr noundef %35)
  %.not24 = icmp eq i32 %42, 0
  br i1 %.not24, label %poolStoreString.exit.thread, label %43

43:                                               ; preds = %40, %38
  br label %poolStoreString.exit.thread

poolStoreString.exit.thread:                      ; preds = %poolAppend.exit.thread.i, %28, %poolAppend.exit.i, %40, %33, %poolStoreString.exit, %43
  %.0 = phi ptr [ %35, %43 ], [ null, %poolStoreString.exit ], [ null, %33 ], [ null, %40 ], [ null, %poolAppend.exit.i ], [ null, %28 ], [ null, %poolAppend.exit.thread.i ]
  ret ptr %.0
}